; Function Attrs: mustprogress uwtable
define dso_local void @_ZN10cmFindBase11ExpandPathsEv(ptr noundef nonnull align 8 dereferenceable(600) %0) local_unnamed_addr #3 align 2 {
  %2 = getelementptr inbounds i8, ptr %0, i64 93
  %3 = load i8, ptr %2, align 1
  %4 = and i8 %3, 1
  %.not = icmp eq i8 %4, 0
  br i1 %.not, label %5, label %20

5:                                                ; preds = %1
  %6 = getelementptr inbounds i8, ptr %0, i64 94
  %7 = load i8, ptr %6, align 2
  %8 = and i8 %7, 1
  %.not1 = icmp eq i8 %8, 0
  br i1 %.not1, label %9, label %10

9:                                                ; preds = %5
  tail call void @_ZN10cmFindBase19FillPackageRootPathEv(ptr noundef nonnull align 8 dereferenceable(600) %0)
  br label %10

10:                                               ; preds = %9, %5
  %11 = getelementptr inbounds i8, ptr %0, i64 95
  %12 = load i8, ptr %11, align 1
  %13 = and i8 %12, 1
  %.not2 = icmp eq i8 %13, 0
  br i1 %.not2, label %14, label %15

14:                                               ; preds = %10
  tail call void @_ZN10cmFindBase21FillCMakeVariablePathEv(ptr noundef nonnull align 8 dereferenceable(600) %0)
  br label %15

15:                                               ; preds = %14, %10
  %16 = getelementptr inbounds i8, ptr %0, i64 96
  %17 = load i8, ptr %16, align 8
  %18 = and i8 %17, 1
  %.not3 = icmp eq i8 %18, 0
  br i1 %.not3, label %19, label %20

19:                                               ; preds = %15
  tail call void @_ZN10cmFindBase24FillCMakeEnvironmentPathEv(ptr noundef nonnull align 8 dereferenceable(600) %0)
  br label %20

20:                                               ; preds = %15, %19, %1
  tail call void @_ZN10cmFindBase17FillUserHintsPathEv(ptr noundef nonnull align 8 dereferenceable(600) %0)
  %21 = load i8, ptr %2, align 1
  %22 = and i8 %21, 1
  %.not4 = icmp eq i8 %22, 0
  br i1 %.not4, label %23, label %33

23:                                               ; preds = %20
  %24 = getelementptr inbounds i8, ptr %0, i64 97
  %25 = load i8, ptr %24, align 1
  %26 = and i8 %25, 1
  %.not5 = icmp eq i8 %26, 0
  br i1 %.not5, label %27, label %28

27:                                               ; preds = %23
  tail call void @_ZN10cmFindBase25FillSystemEnvironmentPathEv(ptr noundef nonnull align 8 dereferenceable(600) %0)
  br label %28

28:                                               ; preds = %27, %23
  %29 = getelementptr inbounds i8, ptr %0, i64 98
  %30 = load i8, ptr %29, align 2
  %31 = and i8 %30, 1
  %.not6 = icmp eq i8 %31, 0
  br i1 %.not6, label %32, label %33

32:                                               ; preds = %28
  tail call void @_ZN10cmFindBase27FillCMakeSystemVariablePathEv(ptr noundef nonnull align 8 dereferenceable(600) %0)
  br label %33

33:                                               ; preds = %28, %32, %20
  tail call void @_ZN10cmFindBase17FillUserGuessPathEv(ptr noundef nonnull align 8 dereferenceable(600) %0)
  ret void
}